target datalayout = "e-m:e-p270:32:32-p271:32:32-p272:64:64-i64:64-i128:128-f80:128-n8:16:32:64-S128"
target triple = "x86_64-pc-linux-gnu"

%struct.GCRef = type { i64 }
%struct.jit_State = type { %struct.GCtrace, ptr, ptr, ptr, ptr, ptr, ptr, i32, i32, i32, i8, i8, %struct.IRType1, i8, %struct.FoldState, ptr, i32, i32, i32, i32, i32, i32, i32, [1 x i32], [5 x %union.TValue], [3 x %union.TValue], ptr, i32, i32, i32, i32, ptr, ptr, i32, i32, i8, ptr, i32, i32, i16, [101 x i16], [258 x i32], [15 x i32], [16 x ptr], [64 x %struct.HotPenalty], i32, [16 x %struct.BPropEntry], i32, %struct.ScEvEntry, ptr, i32, i32, i32, ptr, i32, i32, ptr, ptr, ptr, i64, i64, %union.TValue, ptr, i32, i32 }
%struct.GCtrace = type { %struct.GCRef, i8, i8, i16, i32, i32, %struct.GCRef, ptr, i32, i32, ptr, ptr, %struct.GCRef, %struct.MRef, i32, i32, ptr, i32, i16, i16, i16, i16, i16, i16, i16, i8, i8, i8, i8 }
%struct.MRef = type { i64 }
%struct.IRType1 = type { i8 }
%struct.FoldState = type { %union.IRIns, [2 x %union.IRIns], [2 x %union.IRIns] }
%union.IRIns = type { %struct.GCRef }
%struct.HotPenalty = type { %struct.MRef, i16, i16 }
%struct.BPropEntry = type { i16, i16, i32 }
%struct.ScEvEntry = type { %struct.MRef, i16, i16, i16, i16, %struct.IRType1, i8 }
%union.TValue = type { i64 }
%struct.anon.2 = type { i16, i16, i16, i16 }

; Function Attrs: alwaysinline nounwind uwtable
define internal void @lj_ir_set_(ptr noundef %0, i16 noundef zeroext %1, i16 noundef zeroext %2, i16 noundef zeroext %3) #1 {
  %5 = alloca ptr, align 8
  %6 = alloca i16, align 2
  %7 = alloca i16, align 2
  %8 = alloca i16, align 2
  store ptr %0, ptr %5, align 8, !tbaa !4
  store i16 %1, ptr %6, align 2, !tbaa !14
  store i16 %2, ptr %7, align 2, !tbaa !14
  store i16 %3, ptr %8, align 2, !tbaa !14
  %9 = load i16, ptr %6, align 2, !tbaa !14
  %10 = load ptr, ptr %5, align 8, !tbaa !4
  %11 = getelementptr inbounds nuw %struct.jit_State, ptr %10, i32 0, i32 14
  %12 = getelementptr inbounds nuw %struct.FoldState, ptr %11, i32 0, i32 0
  %13 = getelementptr inbounds nuw %struct.anon.2, ptr %12, i32 0, i32 2
  store i16 %9, ptr %13, align 4, !tbaa !13
  %14 = load i16, ptr %7, align 2, !tbaa !14
  %15 = load ptr, ptr %5, align 8, !tbaa !4
  %16 = getelementptr inbounds nuw %struct.jit_State, ptr %15, i32 0, i32 14
  %17 = getelementptr inbounds nuw %struct.FoldState, ptr %16, i32 0, i32 0
  %18 = getelementptr inbounds nuw %struct.anon.2, ptr %17, i32 0, i32 0
  store i16 %14, ptr %18, align 8, !tbaa !13
  %19 = load i16, ptr %8, align 2, !tbaa !14
  %20 = load ptr, ptr %5, align 8, !tbaa !4
  %21 = getelementptr inbounds nuw %struct.jit_State, ptr %20, i32 0, i32 14
  %22 = getelementptr inbounds nuw %struct.FoldState, ptr %21, i32 0, i32 0
  %23 = getelementptr inbounds nuw %struct.anon.2, ptr %22, i32 0, i32 1
  store i16 %19, ptr %23, align 2, !tbaa !13
  ret void
}

; Function Attrs: nounwind uwtable
define internal i32 @recff_tmpref(ptr noundef %0, i32 noundef %1, i32 noundef %2) #0 {
  %4 = alloca ptr, align 8
  %5 = alloca i32, align 4
  %6 = alloca i32, align 4
  store ptr %0, ptr %4, align 8, !tbaa !4
  store i32 %1, ptr %5, align 4, !tbaa !9
  store i32 %2, ptr %6, align 4, !tbaa !9
  %7 = load i32, ptr %5, align 4, !tbaa !9
  %8 = lshr i32 %7, 24
  %9 = and i32 %8, 31
  %10 = sub i32 %9, 15
  %11 = icmp ule i32 %10, 4
  br i1 %11, label %12, label %18

12:                                               ; preds = %3
  %13 = load ptr, ptr %4, align 8, !tbaa !4
  %14 = load i32, ptr %5, align 4, !tbaa !9
  %15 = trunc i32 %14 to i16
  call void @lj_ir_set_(ptr noundef %13, i16 noundef zeroext 23310, i16 noundef zeroext %15, i16 noundef zeroext 467)
  %16 = load ptr, ptr %4, align 8, !tbaa !4
  %17 = call i32 @lj_opt_fold(ptr noundef %16)
  store i32 %17, ptr %5, align 4, !tbaa !9
  br label %18

18:                                               ; preds = %12, %3
  %19 = load ptr, ptr %4, align 8, !tbaa !4
  %20 = load i32, ptr %5, align 4, !tbaa !9
  %21 = trunc i32 %20 to i16
  %22 = load i32, ptr %6, align 4, !tbaa !9
  %23 = trunc i32 %22 to i16
  call void @lj_ir_set_(ptr noundef %19, i16 noundef zeroext 16137, i16 noundef zeroext %21, i16 noundef zeroext %23)
  %24 = load ptr, ptr %4, align 8, !tbaa !4
  %25 = call i32 @lj_opt_fold(ptr noundef %24)
  ret i32 %25
}

; Function Attrs: nounwind uwtable
define internal void @recff_buffer_encode(ptr noundef %0, ptr noundef %1) #0 {
  %3 = alloca ptr, align 8
  %4 = alloca ptr, align 8
  %5 = alloca i32, align 4
  store ptr %0, ptr %3, align 8, !tbaa !4
  store ptr %1, ptr %4, align 8, !tbaa !46
  call void @llvm.lifetime.start.p0(i64 4, ptr %5) #9
  %6 = load ptr, ptr %3, align 8, !tbaa !4
  %7 = load ptr, ptr %3, align 8, !tbaa !4
  %8 = getelementptr inbounds nuw %struct.jit_State, ptr %7, i32 0, i32 6
  %9 = load ptr, ptr %8, align 8, !tbaa !41
  %10 = getelementptr inbounds i32, ptr %9, i64 0
  %11 = load i32, ptr %10, align 4, !tbaa !9
  %12 = call i32 @recff_tmpref(ptr noundef %6, i32 noundef %11, i32 noundef 1)
  store i32 %12, ptr %5, align 4, !tbaa !9
  %13 = load ptr, ptr %3, align 8, !tbaa !4
  %14 = load i32, ptr %5, align 4, !tbaa !9
  %15 = call i32 (ptr, i32, ...) @lj_ir_call(ptr noundef %13, i32 noundef 28, i32 noundef %14)
  %16 = load ptr, ptr %3, align 8, !tbaa !4
  %17 = getelementptr inbounds nuw %struct.jit_State, ptr %16, i32 0, i32 6
  %18 = load ptr, ptr %17, align 8, !tbaa !41
  %19 = getelementptr inbounds i32, ptr %18, i64 0
  store i32 %15, ptr %19, align 4, !tbaa !9
  %20 = load ptr, ptr %3, align 8, !tbaa !4
  %21 = load ptr, ptr %3, align 8, !tbaa !4
  %22 = getelementptr inbounds nuw %struct.jit_State, ptr %21, i32 0, i32 6
  %23 = load ptr, ptr %22, align 8, !tbaa !41
  %24 = getelementptr inbounds i32, ptr %23, i64 0
  %25 = load i32, ptr %24, align 4, !tbaa !9
  %26 = trunc i32 %25 to i16
  call void @lj_ir_set_(ptr noundef %20, i16 noundef zeroext 4608, i16 noundef zeroext %26, i16 noundef zeroext 0)
  %27 = load ptr, ptr %3, align 8, !tbaa !4
  %28 = call i32 @lj_opt_fold(ptr noundef %27)
  call void @llvm.lifetime.end.p0(i64 4, ptr %5) #9
  ret void
}