; Function Attrs: nounwind uwtable
define internal void @recff_buffer_encode(ptr noundef initializes((184, 190)) %0, ptr readnone captures(none) %1) #0 {
  %3 = getelementptr inbounds nuw i8, ptr %0, i64 160
  %4 = load ptr, ptr %3, align 8, !tbaa !37
  %5 = load i32, ptr %4, align 4, !tbaa !39
  %6 = lshr i32 %5, 24
  %7 = and i32 %6, 31
  %8 = add nsw i32 %7, -15
  %9 = icmp ult i32 %8, 5
  br i1 %9, label %10, label %recff_tmpref.exit

10:                                               ; preds = %2
  %11 = trunc i32 %5 to i16
  %12 = getelementptr inbounds nuw i8, ptr %0, i64 184
  %13 = getelementptr inbounds nuw i8, ptr %0, i64 188
  store i16 23310, ptr %13, align 4, !tbaa !4
  store i16 %11, ptr %12, align 8, !tbaa !4
  %14 = getelementptr inbounds nuw i8, ptr %0, i64 186
  store i16 467, ptr %14, align 2, !tbaa !4
  %15 = tail call i32 @lj_opt_fold(ptr noundef nonnull %0) #9
  br label %recff_tmpref.exit

recff_tmpref.exit:                                ; preds = %2, %10
  %.0.i = phi i32 [ %15, %10 ], [ %5, %2 ]
  %16 = trunc i32 %.0.i to i16
  %17 = getelementptr inbounds nuw i8, ptr %0, i64 184
  %18 = getelementptr inbounds nuw i8, ptr %0, i64 188
  store i16 16137, ptr %18, align 4, !tbaa !4
  store i16 %16, ptr %17, align 8, !tbaa !4
  %19 = getelementptr inbounds nuw i8, ptr %0, i64 186
  store i16 1, ptr %19, align 2, !tbaa !4
  %20 = tail call i32 @lj_opt_fold(ptr noundef nonnull %0) #9
  %21 = tail call i32 (ptr, i32, ...) @lj_ir_call(ptr noundef nonnull %0, i32 noundef 28, i32 noundef %20) #9
  %22 = load ptr, ptr %3, align 8, !tbaa !37
  store i32 %21, ptr %22, align 4, !tbaa !39
  %23 = trunc i32 %21 to i16
  store i16 4608, ptr %18, align 4, !tbaa !4
  store i16 %23, ptr %17, align 8, !tbaa !4
  store i16 0, ptr %19, align 2, !tbaa !4
  %24 = tail call i32 @lj_opt_fold(ptr noundef nonnull %0) #9
  ret void
}